; ModuleID = '44/744.c'
source_filename = "44/744.c"
target datalayout = "e-m:e-p270:32:32-p271:32:32-p272:64:64-i64:64-f80:128-n8:16:32:64-S128"
target triple = "x86_64-pc-linux-gnu"

@.str = private unnamed_addr constant [3 x i8] c"%d\00", align 1
@.str.1 = private unnamed_addr constant [3 x i8] c"0\0A\00", align 1
@.str.2 = private unnamed_addr constant [2 x i8] c"-\00", align 1
@.str.3 = private unnamed_addr constant [2 x i8] c"\0A\00", align 1

; Function Attrs: noinline nounwind uwtable
define dso_local void @make(i32 %0, i32 %1) #0 {
  %3 = alloca i32, align 4
  %4 = alloca i32, align 4
  %5 = alloca i32, align 4
  store i32 %0, i32* %3, align 4
  store i32 %1, i32* %4, align 4
  %6 = load i32, i32* %4, align 4
  %7 = icmp eq i32 %6, 0
  br i1 %7, label %8, label %9

8:                                                ; preds = %2
  br label %31

9:                                                ; preds = %2
  %10 = load i32, i32* %4, align 4
  %11 = srem i32 %10, 10
  store i32 %11, i32* %5, align 4
  %12 = load i32, i32* %3, align 4
  %13 = icmp eq i32 %12, 0
  br i1 %13, label %14, label %26

14:                                               ; preds = %9
  %15 = load i32, i32* %5, align 4
  %16 = icmp ne i32 %15, 0
  br i1 %16, label %17, label %22

17:                                               ; preds = %14
  %18 = load i32, i32* %5, align 4
  %19 = call i32 (i8*, ...) @printf(i8* getelementptr inbounds ([3 x i8], [3 x i8]* @.str, i64 0, i64 0), i32 %18)
  %20 = load i32, i32* %4, align 4
  %21 = sdiv i32 %20, 10
  call void @make(i32 1, i32 %21)
  br label %25

22:                                               ; preds = %14
  %23 = load i32, i32* %4, align 4
  %24 = sdiv i32 %23, 10
  call void @make(i32 0, i32 %24)
  br label %25

25:                                               ; preds = %22, %17
  br label %31

26:                                               ; preds = %9
  %27 = load i32, i32* %5, align 4
  %28 = call i32 (i8*, ...) @printf(i8* getelementptr inbounds ([3 x i8], [3 x i8]* @.str, i64 0, i64 0), i32 %27)
  %29 = load i32, i32* %4, align 4
  %30 = sdiv i32 %29, 10
  call void @make(i32 1, i32 %30)
  br label %31

31:                                               ; preds = %8, %26, %25
  ret void
}

declare dso_local i32 @printf(i8*, ...) #1

; Function Attrs: noinline nounwind uwtable
define dso_local i32 @main() #0 {
  %1 = alloca i32, align 4
  %2 = alloca i32, align 4
  %3 = alloca i32, align 4
  %4 = alloca i32, align 4
  %5 = alloca i32, align 4
  %6 = alloca i32, align 4
  %7 = alloca i32, align 4
  %8 = alloca [100 x i32], align 16
  %9 = alloca i32, align 4
  store i32 0, i32* %1, align 4
  store i32 1, i32* %2, align 4
  br label %10

10:                                               ; preds = %34, %0
  %11 = load i32, i32* %2, align 4
  %12 = icmp sle i32 %11, 6
  br i1 %12, label %13, label %37

13:                                               ; preds = %10
  %14 = call i32 (i8*, ...) @__isoc99_scanf(i8* getelementptr inbounds ([3 x i8], [3 x i8]* @.str, i64 0, i64 0), i32* %6)
  %15 = load i32, i32* %6, align 4
  %16 = icmp eq i32 %15, 0
  br i1 %16, label %17, label %19

17:                                               ; preds = %13
  %18 = call i32 (i8*, ...) @printf(i8* getelementptr inbounds ([3 x i8], [3 x i8]* @.str.1, i64 0, i64 0))
  br label %34

19:                                               ; preds = %13
  %20 = load i32, i32* %6, align 4
  %21 = icmp slt i32 %20, 0
  br i1 %21, label %22, label %24

22:                                               ; preds = %19
  %23 = call i32 (i8*, ...) @printf(i8* getelementptr inbounds ([2 x i8], [2 x i8]* @.str.2, i64 0, i64 0))
  br label %24

24:                                               ; preds = %22, %19
  %25 = load i32, i32* %6, align 4
  %26 = icmp slt i32 %25, 0
  br i1 %26, label %27, label %30

27:                                               ; preds = %24
  %28 = load i32, i32* %6, align 4
  %29 = sub nsw i32 0, %28
  call void @make(i32 0, i32 %29)
  br label %32

30:                                               ; preds = %24
  %31 = load i32, i32* %6, align 4
  call void @make(i32 0, i32 %31)
  br label %32

32:                                               ; preds = %30, %27
  %33 = call i32 (i8*, ...) @printf(i8* getelementptr inbounds ([2 x i8], [2 x i8]* @.str.3, i64 0, i64 0))
  br label %34

34:                                               ; preds = %32, %17
  %35 = load i32, i32* %2, align 4
  %36 = add nsw i32 %35, 1
  store i32 %36, i32* %2, align 4
  br label %10

37:                                               ; preds = %10
  %38 = load i32, i32* %1, align 4
  ret i32 %38
}

declare dso_local i32 @__isoc99_scanf(i8*, ...) #1


!llvm.module.flags = !{!0}
!llvm.ident = !{!1}

!0 = !{i32 1, !"wchar_size", i32 4}
!1 = !{!"clang version 10.0.0-4ubuntu1 "}
